target datalayout = "e-m:e-p270:32:32-p271:32:32-p272:64:64-i64:64-i128:128-f80:128-n8:16:32:64-S128"
target triple = "x86_64-pc-linux-gnu"

%class.svector = type { %class.vector.22 }
%class.vector.22 = type { ptr }
%"class.datalog::relation_signature" = type { %"class.datalog::tr_infrastructure<datalog::relation_traits>::signature_base" }
%"class.datalog::tr_infrastructure<datalog::relation_traits>::signature_base" = type { %class.ptr_vector.31 }
%class.ptr_vector.31 = type { %class.vector.32 }
%class.vector.32 = type { ptr }
%"class.datalog::product_relation" = type { %"class.datalog::relation_base.base", i8, %class.ptr_vector.33, %"struct.datalog::rel_spec" }
%"class.datalog::relation_base.base" = type { %"class.datalog::tr_infrastructure<datalog::relation_traits>::base_ancestor.base" }
%"class.datalog::tr_infrastructure<datalog::relation_traits>::base_ancestor.base" = type <{ ptr, ptr, %"class.datalog::relation_signature", i32 }>
%class.ptr_vector.33 = type { %class.vector.34 }
%class.vector.34 = type { ptr }
%"struct.datalog::rel_spec" = type { %class.svector }

; Function Attrs: mustprogress nounwind uwtable
define linkonce_odr hidden noundef nonnull align 8 dereferenceable(8) ptr @_ZNK6vectorIPN7datalog13relation_baseELb0EjEixEj(ptr noundef nonnull align 8 dereferenceable(8) %0, i32 noundef %1) #6 comdat align 2 {
  %3 = alloca ptr, align 8
  %4 = alloca i32, align 4
  store ptr %0, ptr %3, align 8, !tbaa !86
  store i32 %1, ptr %4, align 4, !tbaa !26
  %5 = load ptr, ptr %3, align 8
  %6 = getelementptr inbounds nuw %class.vector.34, ptr %5, i32 0, i32 0
  %7 = load ptr, ptr %6, align 8, !tbaa !90
  %8 = load i32, ptr %4, align 4, !tbaa !26
  %9 = zext i32 %8 to i64
  %10 = getelementptr inbounds nuw ptr, ptr %7, i64 %9
  ret ptr %10
}

; Function Attrs: mustprogress nounwind uwtable
define linkonce_odr hidden noundef i32 @_ZNK6vectorIPN7datalog13relation_baseELb0EjE4sizeEv(ptr noundef nonnull align 8 dereferenceable(8) %0) #6 comdat align 2 {
  %2 = alloca i32, align 4
  %3 = alloca ptr, align 8
  store ptr %0, ptr %3, align 8, !tbaa !86
  %4 = load ptr, ptr %3, align 8
  %5 = getelementptr inbounds nuw %class.vector.34, ptr %4, i32 0, i32 0
  %6 = load ptr, ptr %5, align 8, !tbaa !90
  %7 = icmp eq ptr %6, null
  br i1 %7, label %8, label %9

8:                                                ; preds = %1
  store i32 0, ptr %2, align 4
  br label %14

9:                                                ; preds = %1
  %10 = getelementptr inbounds nuw %class.vector.34, ptr %4, i32 0, i32 0
  %11 = load ptr, ptr %10, align 8, !tbaa !90
  %12 = getelementptr inbounds i32, ptr %11, i64 -1
  %13 = load i32, ptr %12, align 4, !tbaa !26
  store i32 %13, ptr %2, align 4
  br label %14

14:                                               ; preds = %9, %8
  %15 = load i32, ptr %2, align 4
  ret i32 %15
}

; Function Attrs: mustprogress nounwind uwtable
define linkonce_odr hidden noundef zeroext i1 @_ZNK6vectorIPN7datalog13relation_baseELb0EjE5emptyEv(ptr noundef nonnull align 8 dereferenceable(8) %0) #6 comdat align 2 {
  %2 = alloca ptr, align 8
  store ptr %0, ptr %2, align 8, !tbaa !86
  %3 = load ptr, ptr %2, align 8
  %4 = getelementptr inbounds nuw %class.vector.34, ptr %3, i32 0, i32 0
  %5 = load ptr, ptr %4, align 8, !tbaa !90
  %6 = icmp eq ptr %5, null
  br i1 %6, label %13, label %7

7:                                                ; preds = %1
  %8 = getelementptr inbounds nuw %class.vector.34, ptr %3, i32 0, i32 0
  %9 = load ptr, ptr %8, align 8, !tbaa !90
  %10 = getelementptr inbounds i32, ptr %9, i64 -1
  %11 = load i32, ptr %10, align 4, !tbaa !26
  %12 = icmp eq i32 %11, 0
  br label %13

13:                                               ; preds = %7, %1
  %14 = phi i1 [ true, %1 ], [ %12, %7 ]
  ret i1 %14
}

; Function Attrs: mustprogress uwtable
define hidden noundef zeroext i1 @_ZNK7datalog16product_relation5emptyEv(ptr noundef nonnull align 8 dereferenceable(48) %0) unnamed_addr #4 align 2 {
  %2 = alloca i1, align 1
  %3 = alloca ptr, align 8
  %4 = alloca i32, align 4
  %5 = alloca i32, align 4
  store ptr %0, ptr %3, align 8, !tbaa !48
  %6 = load ptr, ptr %3, align 8
  %7 = getelementptr inbounds nuw %"class.datalog::product_relation", ptr %6, i32 0, i32 2
  %8 = call noundef zeroext i1 @_ZNK6vectorIPN7datalog13relation_baseELb0EjE5emptyEv(ptr noundef nonnull align 8 dereferenceable(8) %7)
  br i1 %8, label %9, label %13

9:                                                ; preds = %1
  %10 = getelementptr inbounds nuw %"class.datalog::product_relation", ptr %6, i32 0, i32 1
  %11 = load i8, ptr %10, align 4, !tbaa !95, !range !122, !noundef !123
  %12 = trunc i8 %11 to i1
  store i1 %12, ptr %2, align 1
  br label %37

13:                                               ; preds = %1
  call void @llvm.lifetime.start.p0(i64 4, ptr %4) #3
  store i32 0, ptr %4, align 4, !tbaa !26
  br label %14

14:                                               ; preds = %31, %13
  %15 = load i32, ptr %4, align 4, !tbaa !26
  %16 = getelementptr inbounds nuw %"class.datalog::product_relation", ptr %6, i32 0, i32 2
  %17 = call noundef i32 @_ZNK6vectorIPN7datalog13relation_baseELb0EjE4sizeEv(ptr noundef nonnull align 8 dereferenceable(8) %16)
  %18 = icmp ult i32 %15, %17
  br i1 %18, label %20, label %19

19:                                               ; preds = %14
  store i32 2, ptr %5, align 4
  br label %34

20:                                               ; preds = %14
  %21 = getelementptr inbounds nuw %"class.datalog::product_relation", ptr %6, i32 0, i32 2
  %22 = load i32, ptr %4, align 4, !tbaa !26
  %23 = call noundef nonnull align 8 dereferenceable(8) ptr @_ZNK6vectorIPN7datalog13relation_baseELb0EjEixEj(ptr noundef nonnull align 8 dereferenceable(8) %21, i32 noundef %22)
  %24 = load ptr, ptr %23, align 8, !tbaa !52
  %25 = load ptr, ptr %24, align 8, !tbaa !12
  %26 = getelementptr inbounds ptr, ptr %25, i64 3
  %27 = load ptr, ptr %26, align 8
  %28 = call noundef zeroext i1 %27(ptr noundef nonnull align 8 dereferenceable(28) %24)
  br i1 %28, label %29, label %30

29:                                               ; preds = %20
  store i1 true, ptr %2, align 1
  store i32 1, ptr %5, align 4
  br label %34

30:                                               ; preds = %20
  br label %31

31:                                               ; preds = %30
  %32 = load i32, ptr %4, align 4, !tbaa !26
  %33 = add i32 %32, 1
  store i32 %33, ptr %4, align 4, !tbaa !26
  br label %14, !llvm.loop !181

34:                                               ; preds = %29, %19
  call void @llvm.lifetime.end.p0(i64 4, ptr %4) #3
  %35 = load i32, ptr %5, align 4
  switch i32 %35, label %39 [
    i32 2, label %36
    i32 1, label %37
  ]

36:                                               ; preds = %34
  store i1 false, ptr %2, align 1
  br label %37

37:                                               ; preds = %36, %34, %9
  %38 = load i1, ptr %2, align 1
  ret i1 %38

39:                                               ; preds = %34
  unreachable
}