; Function Attrs: mustprogress uwtable
define hidden noundef zeroext i1 @_ZNK7datalog16product_relation5emptyEv(ptr noundef nonnull readonly align 8 captures(none) dereferenceable(48) %0) unnamed_addr #3 align 2 {
  %2 = getelementptr inbounds nuw i8, ptr %0, i64 32
  %3 = load ptr, ptr %2, align 8, !tbaa !89
  %4 = icmp eq ptr %3, null
  br i1 %4, label %_ZNK6vectorIPN7datalog13relation_baseELb0EjE5emptyEv.exit.thread, label %_ZNK6vectorIPN7datalog13relation_baseELb0EjE5emptyEv.exit

_ZNK6vectorIPN7datalog13relation_baseELb0EjE5emptyEv.exit: ; preds = %1
  %5 = getelementptr inbounds i8, ptr %3, i64 -4
  %6 = load i32, ptr %5, align 4, !tbaa !39
  %7 = icmp eq i32 %6, 0
  br i1 %7, label %_ZNK6vectorIPN7datalog13relation_baseELb0EjE5emptyEv.exit.thread, label %.preheader

_ZNK6vectorIPN7datalog13relation_baseELb0EjE5emptyEv.exit.thread: ; preds = %1, %_ZNK6vectorIPN7datalog13relation_baseELb0EjE5emptyEv.exit
  %8 = getelementptr inbounds nuw i8, ptr %0, i64 28
  %9 = load i8, ptr %8, align 4, !tbaa !114, !range !174, !noundef !175
  %10 = trunc nuw i8 %9 to i1
  br label %.loopexit

.preheader:                                       ; preds = %_ZNK6vectorIPN7datalog13relation_baseELb0EjE5emptyEv.exit, %17
  %indvars.iv = phi i64 [ %indvars.iv.next, %17 ], [ 0, %_ZNK6vectorIPN7datalog13relation_baseELb0EjE5emptyEv.exit ]
  %11 = load ptr, ptr %2, align 8, !tbaa !89
  %12 = icmp eq ptr %11, null
  br i1 %12, label %_ZNK6vectorIPN7datalog13relation_baseELb0EjE4sizeEv.exit, label %13

13:                                               ; preds = %.preheader
  %14 = getelementptr inbounds i8, ptr %11, i64 -4
  %15 = load i32, ptr %14, align 4, !tbaa !39
  %16 = zext i32 %15 to i64
  br label %_ZNK6vectorIPN7datalog13relation_baseELb0EjE4sizeEv.exit

_ZNK6vectorIPN7datalog13relation_baseELb0EjE4sizeEv.exit: ; preds = %.preheader, %13
  %.0.i = phi i64 [ %16, %13 ], [ 0, %.preheader ]
  %.not = icmp samesign ult i64 %indvars.iv, %.0.i
  br i1 %.not, label %17, label %.loopexit

17:                                               ; preds = %_ZNK6vectorIPN7datalog13relation_baseELb0EjE4sizeEv.exit
  %18 = getelementptr inbounds nuw ptr, ptr %11, i64 %indvars.iv
  %19 = load ptr, ptr %18, align 8, !tbaa !92
  %20 = load ptr, ptr %19, align 8, !tbaa !17
  %21 = getelementptr inbounds nuw i8, ptr %20, i64 24
  %22 = load ptr, ptr %21, align 8
  %23 = tail call noundef zeroext i1 %22(ptr noundef nonnull align 8 dereferenceable(28) %19)
  %indvars.iv.next = add nuw nsw i64 %indvars.iv, 1
  br i1 %23, label %.loopexit, label %.preheader, !llvm.loop !179

.loopexit:                                        ; preds = %_ZNK6vectorIPN7datalog13relation_baseELb0EjE4sizeEv.exit, %17, %_ZNK6vectorIPN7datalog13relation_baseELb0EjE5emptyEv.exit.thread
  %.06 = phi i1 [ %10, %_ZNK6vectorIPN7datalog13relation_baseELb0EjE5emptyEv.exit.thread ], [ %.not, %17 ], [ %.not, %_ZNK6vectorIPN7datalog13relation_baseELb0EjE4sizeEv.exit ]
  ret i1 %.06
}